Certificate:
    Data:
        Version: 3 (0x2)
        Serial Number: 1 (0x1)
    Signature Algorithm: sha256WithRSAEncryption
        Issuer: C=CN, ST=sichuan, O=EMQ, CN=RootCA
        Validity
            Not Before: Jan 13 08:43:50 2020 GMT
            Not After : Jan 12 08:43:50 2021 GMT
        Subject: C=CN, ST=sichuan, O=EMQ, CN=Client
        Subject Public Key Info:
            Public Key Algorithm: rsaEncryption
                Public-Key: (2048 bit)
                Modulus:
                    00:e0:86:d2:3d:4c:b8:fa:d5:6b:04:46:91:69:d4:
                    4a:ab:f7:2e:df:d9:bf:1f:68:f4:20:fb:23:5f:db:
                    a1:19:0d:a9:c0:f6:df:66:20:6d:58:2a:0d:9d:8d:
                    cd:4b:ca:87:c8:22:28:fb:59:8d:61:b7:f6:48:d6:
                    af:91:f8:c1:1c:14:47:dc:d0:81:18:ca:94:22:6d:
                    a1:47:46:0c:43:e5:63:f8:5b:37:f9:37:e3:39:55:
                    36:55:b4:9d:31:c6:e8:1f:ce:42:cd:47:e6:89:2b:
                    35:47:59:47:5f:39:5c:d1:06:b6:4e:36:67:eb:0d:
                    3b:89:db:c3:91:65:7e:46:68:fe:43:99:3a:59:df:
                    d9:59:ef:e8:c3:6d:17:a6:a0:2d:40:13:a9:6c:de:
                    cd:b1:2e:dc:94:0f:8c:c0:2b:46:4f:c2:3e:6e:59:
                    0d:ab:ec:a6:e9:23:eb:4c:73:c9:bd:ee:57:a1:51:
                    79:7e:28:d3:20:db:d8:ab:19:34:0e:39:2c:49:ab:
                    af:91:eb:c9:04:18:de:88:ba:20:79:b0:fa:61:5f:
                    d0:de:e4:ec:ce:09:bd:b6:15:f7:d6:a4:0e:89:e5:
                    59:ad:f2:f4:fb:cb:ec:ea:16:0e:31:46:f4:05:9c:
                    71:c5:5d:6d:2e:95:a7:af:a5:36:60:8e:54:60:74:
                    b5:13
                Exponent: 65537 (0x10001)
        X509v3 extensions:
            X509v3 Basic Constraints: 
                CA:FALSE
            X509v3 Key Usage: 
                Digital Signature, Non Repudiation, Key Encipherment
    Signature Algorithm: sha256WithRSAEncryption
         8b:ab:a9:06:ef:95:4f:53:15:5e:cb:31:96:2a:59:cb:f9:b5:
         90:24:a0:b8:34:53:80:b8:ab:47:c8:5a:07:bf:5d:49:1e:25:
         80:ac:a4:12:7b:2e:2f:30:47:6f:80:7a:55:0b:fc:5c:38:4e:
         82:74:82:46:14:cd:7e:36:93:0d:3c:db:2f:b7:40:90:4e:e7:
         75:22:d2:50:97:7a:f7:e0:12:dd:ea:1d:7e:cc:7b:1d:a5:14:
         72:e0:7e:1b:38:e5:ed:0d:dc:f1:5a:7f:d7:53:1d:85:b7:c4:
         ad:65:80:3c:e7:5f:bd:1b:f3:d1:53:df:e0:2d:0f:b8:06:33:
         10:9a:3a:17:48:1f:73:01:c0:a2:cd:5d:75:64:ef:1f:3e:c5:
         9f:7c:b7:13:58:6e:f8:60:5e:44:0e:52:38:ed:48:97:00:ee:
         2f:fe:09:05:00:5a:24:60:29:93:15:7f:f2:47:ce:6e:43:1f:
         d9:51:90:df:a4:39:1e:6e:f3:f7:80:64:4f:f6:13:c5:91:50:
         4c:31:b5:8a:bf:1a:e0:e7:64:27:26:d5:77:ad:99:bf:2b:15:
         79:26:8f:8b:5b:80:40:52:7e:62:f5:e8:ef:32:f1:f4:75:17:
         87:2a:30:5d:8a:04:9e:91:08:ec:06:8a:fe:bf:7c:ed:76:5e:
         f9:5e:42:95
-----BEGIN CERTIFICATE-----
MIIDETCCAfmgAwIBAgIBATANBgkqhkiG9w0BAQsFADA+MQswCQYDVQQGEwJDTjEQ
MA4GA1UECAwHc2ljaHVhbjEMMAoGA1UECgwDRU1RMQ8wDQYDVQQDDAZSb290Q0Ew
HhcNMjAwMTEzMDg0MzUwWhcNMjEwMTEyMDg0MzUwWjA+MQswCQYDVQQGEwJDTjEQ
MA4GA1UECAwHc2ljaHVhbjEMMAoGA1UECgwDRU1RMQ8wDQYDVQQDDAZDbGllbnQw
ggEiMA0GCSqGSIb3DQEBAQUAA4IBDwAwggEKAoIBAQDghtI9TLj61WsERpFp1Eqr
9y7f2b8faPQg+yNf26EZDanA9t9mIG1YKg2djc1LyofIIij7WY1ht/ZI1q+R+MEc
FEfc0IEYypQibaFHRgxD5WP4Wzf5N+M5VTZVtJ0xxugfzkLNR+aJKzVHWUdfOVzR
BrZONmfrDTuJ28ORZX5GaP5DmTpZ39lZ7+jDbRemoC1AE6ls3s2xLtyUD4zAK0ZP
wj5uWQ2r7KbpI+tMc8m97lehUXl+KNMg29irGTQOOSxJq6+R68kEGN6IuiB5sPph
X9De5OzOCb22FffWpA6J5Vmt8vT7y+zqFg4xRvQFnHHFXW0ulaevpTZgjlRgdLUT
AgMBAAGjGjAYMAkGA1UdEwQCMAAwCwYDVR0PBAQDAgXgMA0GCSqGSIb3DQEBCwUA
A4IBAQCLq6kG75VPUxVeyzGWKlnL+bWQJKC4NFOAuKtHyFoHv11JHiWArKQSey4v
MEdvgHpVC/xcOE6CdIJGFM1+NpMNPNsvt0CQTud1ItJQl3r34BLd6h1+zHsdpRRy
4H4bOOXtDdzxWn/XUx2Ft8StZYA851+9G/PRU9/gLQ+4BjMQmjoXSB9zAcCizV11
ZO8fPsWffLcTWG74YF5EDlI47UiXAO4v/gkFAFokYCmTFX/yR85uQx/ZUZDfpDke
bvP3gGRP9hPFkVBMMbWKvxrg52QnJtV3rZm/KxV5Jo+LW4BAUn5i9ejvMvH0dReH
KjBdigSekQjsBor+v3ztdl75XkKV
-----END CERTIFICATE-----
