Certificate:
    Data:
        Version: 3 (0x2)
        Serial Number: 2 (0x2)
    Signature Algorithm: sha256WithRSAEncryption
        Issuer: C=CN, ST=sichuan, O=EMQ, CN=RootCA
        Validity
            Not Before: Jan 13 08:53:14 2020 GMT
            Not After : Jan 12 08:53:14 2021 GMT
        Subject: C=CN, ST=sichuan, O=EMQ, CN=Server
        Subject Public Key Info:
            Public Key Algorithm: rsaEncryption
                Public-Key: (2048 bit)
                Modulus:
                    00:b9:db:8f:b9:f2:bb:62:29:42:f2:ce:cb:2e:d7:
                    2a:c1:12:0b:11:87:2d:dc:1a:89:e6:6a:80:c1:44:
                    81:f2:80:52:fa:7d:ba:96:a2:2b:99:25:b0:64:9e:
                    2b:8c:47:c4:ba:67:d4:48:5f:05:c1:e4:6b:2e:2b:
                    44:19:51:cd:4d:5d:11:7f:e3:30:c7:b6:ce:2e:69:
                    f8:36:34:3d:81:40:20:db:38:d6:50:4b:6a:0c:30:
                    9d:35:57:42:9a:18:a0:2f:b3:3e:a1:cd:8e:ac:0e:
                    24:da:f3:be:30:ad:52:17:ea:82:13:91:ee:d9:80:
                    31:2a:85:2f:2f:aa:a2:b3:f3:a2:9e:34:8f:23:f1:
                    37:32:52:e6:ae:6c:4e:ec:0f:72:e2:da:e2:7b:35:
                    2e:87:64:98:4b:55:06:77:13:c6:a2:94:da:6d:dc:
                    01:fd:d1:a3:a9:64:4d:92:d8:2a:5d:1c:ef:d6:03:
                    f4:01:54:d3:bc:0a:65:28:51:53:46:54:60:c6:c0:
                    34:d0:1a:01:96:28:94:ba:40:e7:6c:1f:06:79:ea:
                    3f:7c:2f:43:7a:b0:70:f6:19:ac:81:1c:f6:7e:a3:
                    e9:32:02:1f:21:a1:04:f6:5e:44:10:ac:d4:da:6b:
                    c3:f0:53:b7:6a:40:95:0d:ce:74:9b:76:e4:b4:8c:
                    13:ef
                Exponent: 65537 (0x10001)
        X509v3 extensions:
            X509v3 Basic Constraints: 
                CA:FALSE
            X509v3 Key Usage: 
                Digital Signature, Non Repudiation, Key Encipherment
    Signature Algorithm: sha256WithRSAEncryption
         b7:be:2e:24:ba:ba:87:8f:41:ee:ae:3b:38:3e:07:c1:04:a6:
         2f:c0:fd:7a:4b:8f:96:55:e1:c9:e0:db:48:22:a7:60:e3:70:
         82:d1:06:90:86:eb:8d:28:25:76:12:4b:ae:ab:fd:d6:6c:87:
         7c:9b:3b:31:81:e0:63:23:e6:d9:a3:c2:d8:85:54:04:5c:60:
         74:f2:34:5f:48:b0:72:5e:20:97:cf:a3:c8:3a:0c:43:dc:44:
         8e:98:03:0c:fd:a5:b2:ba:9a:67:b4:38:d8:53:22:39:d3:0f:
         a8:37:e5:ac:79:62:7c:0e:6e:e8:b6:92:f9:4c:b6:1e:32:e6:
         7f:63:c2:05:61:df:5a:56:3f:85:1d:14:38:7d:04:5d:40:82:
         f9:5b:45:3b:bf:c0:9d:20:ba:d1:a0:ee:f3:63:34:bf:1f:f7:
         62:9a:98:35:ad:b2:3b:54:34:3d:3f:83:27:13:62:65:72:35:
         6d:da:b4:02:37:04:1c:70:f3:b5:19:bf:a0:92:da:eb:6b:39:
         e3:8d:82:03:80:f4:7b:ff:13:d0:8e:cd:a5:62:d5:5f:40:e5:
         ec:c8:9e:40:a8:ec:6d:70:3e:31:24:ae:50:f1:bf:ff:f1:f8:
         57:21:6f:a9:7d:18:f8:8e:3a:67:8b:c7:dc:e3:92:3b:d7:f3:
         ae:e0:af:9a
-----BEGIN CERTIFICATE-----
MIIDETCCAfmgAwIBAgIBAjANBgkqhkiG9w0BAQsFADA+MQswCQYDVQQGEwJDTjEQ
MA4GA1UECAwHc2ljaHVhbjEMMAoGA1UECgwDRU1RMQ8wDQYDVQQDDAZSb290Q0Ew
HhcNMjAwMTEzMDg1MzE0WhcNMjEwMTEyMDg1MzE0WjA+MQswCQYDVQQGEwJDTjEQ
MA4GA1UECAwHc2ljaHVhbjEMMAoGA1UECgwDRU1RMQ8wDQYDVQQDDAZTZXJ2ZXIw
ggEiMA0GCSqGSIb3DQEBAQUAA4IBDwAwggEKAoIBAQC524+58rtiKULyzssu1yrB
EgsRhy3cGonmaoDBRIHygFL6fbqWoiuZJbBkniuMR8S6Z9RIXwXB5GsuK0QZUc1N
XRF/4zDHts4uafg2ND2BQCDbONZQS2oMMJ01V0KaGKAvsz6hzY6sDiTa874wrVIX
6oITke7ZgDEqhS8vqqKz86KeNI8j8TcyUuaubE7sD3Li2uJ7NS6HZJhLVQZ3E8ai
lNpt3AH90aOpZE2S2CpdHO/WA/QBVNO8CmUoUVNGVGDGwDTQGgGWKJS6QOdsHwZ5
6j98L0N6sHD2GayBHPZ+o+kyAh8hoQT2XkQQrNTaa8PwU7dqQJUNznSbduS0jBPv
AgMBAAGjGjAYMAkGA1UdEwQCMAAwCwYDVR0PBAQDAgXgMA0GCSqGSIb3DQEBCwUA
A4IBAQC3vi4kurqHj0Hurjs4PgfBBKYvwP16S4+WVeHJ4NtIIqdg43CC0QaQhuuN
KCV2Ekuuq/3WbId8mzsxgeBjI+bZo8LYhVQEXGB08jRfSLByXiCXz6PIOgxD3ESO
mAMM/aWyuppntDjYUyI50w+oN+WseWJ8Dm7otpL5TLYeMuZ/Y8IFYd9aVj+FHRQ4
fQRdQIL5W0U7v8CdILrRoO7zYzS/H/dimpg1rbI7VDQ9P4MnE2JlcjVt2rQCNwQc
cPO1Gb+gktrraznjjYIDgPR7/xPQjs2lYtVfQOXsyJ5AqOxtcD4xJK5Q8b//8fhX
IW+pfRj4jjpni8fc45I71/Ou4K+a
-----END CERTIFICATE-----
